target datalayout = "e-m:e-p270:32:32-p271:32:32-p272:64:64-i64:64-i128:128-f80:128-n8:16:32:64-S128"
target triple = "x86_64-pc-linux-gnu"

%struct.AVFilterContext = type { ptr, ptr, ptr, ptr, ptr, i32, ptr, ptr, i32, ptr, ptr, i32, i32, ptr, ptr, ptr, ptr, i32, ptr, i32, i32 }
%struct.BLRContext = type { ptr, i32, i32, i32, float, float, i8, i8, i32, i32, i32, i32, i32, double, i64, ptr, ptr, ptr, ptr, ptr }

@.str.21 = private unnamed_addr constant [17 x i8] c"blur mean: %.7f\0A\00", align 1

; Function Attrs: cold nounwind optsize uwtable
define internal void @blurdetect_uninit(ptr noundef %0) #0 {
  %2 = alloca ptr, align 8
  %3 = alloca ptr, align 8
  store ptr %0, ptr %2, align 8, !tbaa !4
  call void @llvm.lifetime.start.p0(i64 8, ptr %3) #9
  %4 = load ptr, ptr %2, align 8, !tbaa !4
  %5 = getelementptr inbounds nuw %struct.AVFilterContext, ptr %4, i32 0, i32 9
  %6 = load ptr, ptr %5, align 8, !tbaa !9
  store ptr %6, ptr %3, align 8, !tbaa !22
  %7 = load ptr, ptr %3, align 8, !tbaa !22
  %8 = getelementptr inbounds nuw %struct.BLRContext, ptr %7, i32 0, i32 14
  %9 = load i64, ptr %8, align 8, !tbaa !34
  %10 = icmp ugt i64 %9, 0
  br i1 %10, label %11, label %21

11:                                               ; preds = %1
  %12 = load ptr, ptr %2, align 8, !tbaa !4
  %13 = load ptr, ptr %3, align 8, !tbaa !22
  %14 = getelementptr inbounds nuw %struct.BLRContext, ptr %13, i32 0, i32 13
  %15 = load double, ptr %14, align 8, !tbaa !35
  %16 = load ptr, ptr %3, align 8, !tbaa !22
  %17 = getelementptr inbounds nuw %struct.BLRContext, ptr %16, i32 0, i32 14
  %18 = load i64, ptr %17, align 8, !tbaa !34
  %19 = uitofp i64 %18 to double
  %20 = fdiv nsz double %15, %19
  call void (ptr, i32, ptr, ...) @av_log(ptr noundef %12, i32 noundef 32, ptr noundef @.str.21, double noundef %20)
  br label %21

21:                                               ; preds = %11, %1
  %22 = load ptr, ptr %3, align 8, !tbaa !22
  %23 = getelementptr inbounds nuw %struct.BLRContext, ptr %22, i32 0, i32 17
  call void @av_freep(ptr noundef %23)
  %24 = load ptr, ptr %3, align 8, !tbaa !22
  %25 = getelementptr inbounds nuw %struct.BLRContext, ptr %24, i32 0, i32 16
  call void @av_freep(ptr noundef %25)
  %26 = load ptr, ptr %3, align 8, !tbaa !22
  %27 = getelementptr inbounds nuw %struct.BLRContext, ptr %26, i32 0, i32 18
  call void @av_freep(ptr noundef %27)
  %28 = load ptr, ptr %3, align 8, !tbaa !22
  %29 = getelementptr inbounds nuw %struct.BLRContext, ptr %28, i32 0, i32 19
  call void @av_freep(ptr noundef %29)
  %30 = load ptr, ptr %3, align 8, !tbaa !22
  %31 = getelementptr inbounds nuw %struct.BLRContext, ptr %30, i32 0, i32 15
  call void @av_freep(ptr noundef %31)
  call void @llvm.lifetime.end.p0(i64 8, ptr %3) #9
  ret void
}